target datalayout = "e-m:e-p270:32:32-p271:32:32-p272:64:64-i64:64-i128:128-f80:128-n8:16:32:64-S128"
target triple = "x86_64-pc-linux-gnu"

%struct.png_color_8_struct = type { i8, i8, i8, i8, i8 }
%struct.png_color_16_struct = type { i8, i16, i16, i16, i16 }
%struct.png_colorspace = type { i32, %struct.png_xy, %struct.png_XYZ, i16, i16 }
%struct.png_xy = type { i32, i32, i32, i32, i32, i32, i32, i32 }
%struct.png_XYZ = type { i32, i32, i32, i32, i32, i32, i32, i32, i32 }
%struct.png_info_def = type { i32, i32, i32, i64, ptr, i16, i16, i8, i8, i8, i8, i8, i8, i8, i8, [8 x i8], %struct.png_colorspace, ptr, ptr, i32, i32, i32, ptr, %struct.png_time_struct, %struct.png_color_8_struct, ptr, %struct.png_color_16_struct, %struct.png_color_16_struct, i32, i32, i8, i32, i32, i8, i32, ptr, ptr, ptr, ptr, i32, i32, ptr, ptr, i8, i8, i32, ptr, i32, ptr, i32, i8, ptr, ptr, ptr }
%struct.png_time_struct = type { i16, i8, i8, i8, i8, i8 }

; Function Attrs: nounwind uwtable
define i32 @png_get_IHDR(ptr noalias noundef %0, ptr noalias noundef %1, ptr noundef %2, ptr noundef %3, ptr noundef %4, ptr noundef %5, ptr noundef %6, ptr noundef %7, ptr noundef %8) #0 {
  %10 = alloca i32, align 4
  %11 = alloca ptr, align 8
  %12 = alloca ptr, align 8
  %13 = alloca ptr, align 8
  %14 = alloca ptr, align 8
  %15 = alloca ptr, align 8
  %16 = alloca ptr, align 8
  %17 = alloca ptr, align 8
  %18 = alloca ptr, align 8
  %19 = alloca ptr, align 8
  store ptr %0, ptr %11, align 8
  store ptr %1, ptr %12, align 8
  store ptr %2, ptr %13, align 8
  store ptr %3, ptr %14, align 8
  store ptr %4, ptr %15, align 8
  store ptr %5, ptr %16, align 8
  store ptr %6, ptr %17, align 8
  store ptr %7, ptr %18, align 8
  store ptr %8, ptr %19, align 8
  %20 = load ptr, ptr %11, align 8
  %21 = icmp eq ptr %20, null
  br i1 %21, label %25, label %22

22:                                               ; preds = %9
  %23 = load ptr, ptr %12, align 8
  %24 = icmp eq ptr %23, null
  br i1 %24, label %25, label %26

25:                                               ; preds = %22, %9
  store i32 0, ptr %10, align 4
  br label %115

26:                                               ; preds = %22
  %27 = load ptr, ptr %13, align 8
  %28 = icmp ne ptr %27, null
  br i1 %28, label %29, label %34

29:                                               ; preds = %26
  %30 = load ptr, ptr %12, align 8
  %31 = getelementptr inbounds %struct.png_info_def, ptr %30, i32 0, i32 0
  %32 = load i32, ptr %31, align 8
  %33 = load ptr, ptr %13, align 8
  store i32 %32, ptr %33, align 4
  br label %34

34:                                               ; preds = %29, %26
  %35 = load ptr, ptr %14, align 8
  %36 = icmp ne ptr %35, null
  br i1 %36, label %37, label %42

37:                                               ; preds = %34
  %38 = load ptr, ptr %12, align 8
  %39 = getelementptr inbounds %struct.png_info_def, ptr %38, i32 0, i32 1
  %40 = load i32, ptr %39, align 4
  %41 = load ptr, ptr %14, align 8
  store i32 %40, ptr %41, align 4
  br label %42

42:                                               ; preds = %37, %34
  %43 = load ptr, ptr %15, align 8
  %44 = icmp ne ptr %43, null
  br i1 %44, label %45, label %51

45:                                               ; preds = %42
  %46 = load ptr, ptr %12, align 8
  %47 = getelementptr inbounds %struct.png_info_def, ptr %46, i32 0, i32 7
  %48 = load i8, ptr %47, align 4
  %49 = zext i8 %48 to i32
  %50 = load ptr, ptr %15, align 8
  store i32 %49, ptr %50, align 4
  br label %51

51:                                               ; preds = %45, %42
  %52 = load ptr, ptr %16, align 8
  %53 = icmp ne ptr %52, null
  br i1 %53, label %54, label %60

54:                                               ; preds = %51
  %55 = load ptr, ptr %12, align 8
  %56 = getelementptr inbounds %struct.png_info_def, ptr %55, i32 0, i32 8
  %57 = load i8, ptr %56, align 1
  %58 = zext i8 %57 to i32
  %59 = load ptr, ptr %16, align 8
  store i32 %58, ptr %59, align 4
  br label %60

60:                                               ; preds = %54, %51
  %61 = load ptr, ptr %18, align 8
  %62 = icmp ne ptr %61, null
  br i1 %62, label %63, label %69

63:                                               ; preds = %60
  %64 = load ptr, ptr %12, align 8
  %65 = getelementptr inbounds %struct.png_info_def, ptr %64, i32 0, i32 9
  %66 = load i8, ptr %65, align 2
  %67 = zext i8 %66 to i32
  %68 = load ptr, ptr %18, align 8
  store i32 %67, ptr %68, align 4
  br label %69

69:                                               ; preds = %63, %60
  %70 = load ptr, ptr %19, align 8
  %71 = icmp ne ptr %70, null
  br i1 %71, label %72, label %78

72:                                               ; preds = %69
  %73 = load ptr, ptr %12, align 8
  %74 = getelementptr inbounds %struct.png_info_def, ptr %73, i32 0, i32 10
  %75 = load i8, ptr %74, align 1
  %76 = zext i8 %75 to i32
  %77 = load ptr, ptr %19, align 8
  store i32 %76, ptr %77, align 4
  br label %78

78:                                               ; preds = %72, %69
  %79 = load ptr, ptr %17, align 8
  %80 = icmp ne ptr %79, null
  br i1 %80, label %81, label %87

81:                                               ; preds = %78
  %82 = load ptr, ptr %12, align 8
  %83 = getelementptr inbounds %struct.png_info_def, ptr %82, i32 0, i32 11
  %84 = load i8, ptr %83, align 8
  %85 = zext i8 %84 to i32
  %86 = load ptr, ptr %17, align 8
  store i32 %85, ptr %86, align 4
  br label %87

87:                                               ; preds = %81, %78
  %88 = load ptr, ptr %11, align 8
  %89 = load ptr, ptr %12, align 8
  %90 = getelementptr inbounds %struct.png_info_def, ptr %89, i32 0, i32 0
  %91 = load i32, ptr %90, align 8
  %92 = load ptr, ptr %12, align 8
  %93 = getelementptr inbounds %struct.png_info_def, ptr %92, i32 0, i32 1
  %94 = load i32, ptr %93, align 4
  %95 = load ptr, ptr %12, align 8
  %96 = getelementptr inbounds %struct.png_info_def, ptr %95, i32 0, i32 7
  %97 = load i8, ptr %96, align 4
  %98 = zext i8 %97 to i32
  %99 = load ptr, ptr %12, align 8
  %100 = getelementptr inbounds %struct.png_info_def, ptr %99, i32 0, i32 8
  %101 = load i8, ptr %100, align 1
  %102 = zext i8 %101 to i32
  %103 = load ptr, ptr %12, align 8
  %104 = getelementptr inbounds %struct.png_info_def, ptr %103, i32 0, i32 11
  %105 = load i8, ptr %104, align 8
  %106 = zext i8 %105 to i32
  %107 = load ptr, ptr %12, align 8
  %108 = getelementptr inbounds %struct.png_info_def, ptr %107, i32 0, i32 9
  %109 = load i8, ptr %108, align 2
  %110 = zext i8 %109 to i32
  %111 = load ptr, ptr %12, align 8
  %112 = getelementptr inbounds %struct.png_info_def, ptr %111, i32 0, i32 10
  %113 = load i8, ptr %112, align 1
  %114 = zext i8 %113 to i32
  call void @png_check_IHDR(ptr noundef %88, i32 noundef %91, i32 noundef %94, i32 noundef %98, i32 noundef %102, i32 noundef %106, i32 noundef %110, i32 noundef %114)
  store i32 1, ptr %10, align 4
  br label %115

115:                                              ; preds = %87, %25
  %116 = load i32, ptr %10, align 4
  ret i32 %116
}