; Function Attrs: nounwind uwtable
define range(i32 0, 2) i32 @png_get_IHDR(ptr noalias noundef %0, ptr noalias noundef readonly %1, ptr noundef writeonly %2, ptr noundef writeonly %3, ptr noundef writeonly %4, ptr noundef writeonly %5, ptr noundef writeonly %6, ptr noundef writeonly %7, ptr noundef writeonly %8) local_unnamed_addr #1 {
  %10 = icmp eq ptr %0, null
  %11 = icmp eq ptr %1, null
  %or.cond = or i1 %10, %11
  br i1 %or.cond, label %56, label %12

12:                                               ; preds = %9
  %.not = icmp eq ptr %2, null
  br i1 %.not, label %15, label %13

13:                                               ; preds = %12
  %14 = load i32, ptr %1, align 8
  store i32 %14, ptr %2, align 4
  br label %15

15:                                               ; preds = %13, %12
  %.not41 = icmp eq ptr %3, null
  br i1 %.not41, label %19, label %16

16:                                               ; preds = %15
  %17 = getelementptr inbounds i8, ptr %1, i64 4
  %18 = load i32, ptr %17, align 4
  store i32 %18, ptr %3, align 4
  br label %19

19:                                               ; preds = %16, %15
  %.not42 = icmp eq ptr %4, null
  br i1 %.not42, label %24, label %20

20:                                               ; preds = %19
  %21 = getelementptr inbounds i8, ptr %1, i64 36
  %22 = load i8, ptr %21, align 4
  %23 = zext i8 %22 to i32
  store i32 %23, ptr %4, align 4
  br label %24

24:                                               ; preds = %20, %19
  %.not43 = icmp eq ptr %5, null
  br i1 %.not43, label %29, label %25

25:                                               ; preds = %24
  %26 = getelementptr inbounds i8, ptr %1, i64 37
  %27 = load i8, ptr %26, align 1
  %28 = zext i8 %27 to i32
  store i32 %28, ptr %5, align 4
  br label %29

29:                                               ; preds = %25, %24
  %.not44 = icmp eq ptr %7, null
  br i1 %.not44, label %34, label %30

30:                                               ; preds = %29
  %31 = getelementptr inbounds i8, ptr %1, i64 38
  %32 = load i8, ptr %31, align 2
  %33 = zext i8 %32 to i32
  store i32 %33, ptr %7, align 4
  br label %34

34:                                               ; preds = %30, %29
  %.not45 = icmp eq ptr %8, null
  br i1 %.not45, label %39, label %35

35:                                               ; preds = %34
  %36 = getelementptr inbounds i8, ptr %1, i64 39
  %37 = load i8, ptr %36, align 1
  %38 = zext i8 %37 to i32
  store i32 %38, ptr %8, align 4
  br label %39

39:                                               ; preds = %35, %34
  %.not46 = icmp eq ptr %6, null
  %.phi.trans.insert = getelementptr inbounds i8, ptr %1, i64 40
  %.pre = load i8, ptr %.phi.trans.insert, align 8
  %.pre47 = zext i8 %.pre to i32
  br i1 %.not46, label %._crit_edge, label %40

40:                                               ; preds = %39
  store i32 %.pre47, ptr %6, align 4
  br label %._crit_edge

._crit_edge:                                      ; preds = %39, %40
  %41 = load i32, ptr %1, align 8
  %42 = getelementptr inbounds i8, ptr %1, i64 4
  %43 = load i32, ptr %42, align 4
  %44 = getelementptr inbounds i8, ptr %1, i64 36
  %45 = load i8, ptr %44, align 4
  %46 = zext i8 %45 to i32
  %47 = getelementptr inbounds i8, ptr %1, i64 37
  %48 = load i8, ptr %47, align 1
  %49 = zext i8 %48 to i32
  %50 = getelementptr inbounds i8, ptr %1, i64 38
  %51 = load i8, ptr %50, align 2
  %52 = zext i8 %51 to i32
  %53 = getelementptr inbounds i8, ptr %1, i64 39
  %54 = load i8, ptr %53, align 1
  %55 = zext i8 %54 to i32
  tail call void @png_check_IHDR(ptr noundef nonnull %0, i32 noundef %41, i32 noundef %43, i32 noundef %46, i32 noundef %49, i32 noundef %.pre47, i32 noundef %52, i32 noundef %55) #10
  br label %56

56:                                               ; preds = %9, %._crit_edge
  %.0 = phi i32 [ 1, %._crit_edge ], [ 0, %9 ]
  ret i32 %.0
}